target datalayout = "e-m:e-p270:32:32-p271:32:32-p272:64:64-i64:64-i128:128-f80:128-n8:16:32:64-S128"
target triple = "x86_64-pc-linux-gnu"

%struct.Parser = type { ptr, ptr, i32, i32, i32, ptr, ptr, ptr, i32, i32, ptr, i32, ptr, i32, i32, i32, i32, i32, %struct.growable_comment_array, ptr, i32, i32, i32 }
%struct.growable_comment_array = type { ptr, i64, i64 }
%struct.Token = type { i32, ptr, i32, i32, i32, i32, i32, ptr, ptr }

; Function Attrs: nounwind uwtable
define hidden ptr @_PyPegen_get_last_nonnwhitespace_token(ptr noundef %0) #0 {
  %2 = alloca ptr, align 8
  %3 = alloca ptr, align 8
  %4 = alloca i32, align 4
  %5 = alloca i32, align 4
  store ptr %0, ptr %2, align 8, !tbaa !4
  call void @llvm.lifetime.start.p0(i64 8, ptr %3) #10
  store ptr null, ptr %3, align 8, !tbaa !4
  call void @llvm.lifetime.start.p0(i64 4, ptr %4) #10
  %6 = load ptr, ptr %2, align 8, !tbaa !4
  %7 = getelementptr inbounds nuw %struct.Parser, ptr %6, i32 0, i32 2
  %8 = load i32, ptr %7, align 8, !tbaa !38
  %9 = sub i32 %8, 1
  store i32 %9, ptr %4, align 4, !tbaa !18
  br label %10

10:                                               ; preds = %38, %1
  %11 = load i32, ptr %4, align 4, !tbaa !18
  %12 = icmp sge i32 %11, 0
  br i1 %12, label %14, label %13

13:                                               ; preds = %10
  store i32 2, ptr %5, align 4
  br label %41

14:                                               ; preds = %10
  %15 = load ptr, ptr %2, align 8, !tbaa !4
  %16 = getelementptr inbounds nuw %struct.Parser, ptr %15, i32 0, i32 1
  %17 = load ptr, ptr %16, align 8, !tbaa !40
  %18 = load i32, ptr %4, align 4, !tbaa !18
  %19 = sext i32 %18 to i64
  %20 = getelementptr ptr, ptr %17, i64 %19
  %21 = load ptr, ptr %20, align 8, !tbaa !4
  store ptr %21, ptr %3, align 8, !tbaa !4
  %22 = load ptr, ptr %3, align 8, !tbaa !4
  %23 = getelementptr inbounds nuw %struct.Token, ptr %22, i32 0, i32 0
  %24 = load i32, ptr %23, align 8, !tbaa !70
  %25 = icmp ne i32 %24, 0
  br i1 %25, label %26, label %37

26:                                               ; preds = %14
  %27 = load ptr, ptr %3, align 8, !tbaa !4
  %28 = getelementptr inbounds nuw %struct.Token, ptr %27, i32 0, i32 0
  %29 = load i32, ptr %28, align 8, !tbaa !70
  %30 = icmp slt i32 %29, 4
  br i1 %30, label %36, label %31

31:                                               ; preds = %26
  %32 = load ptr, ptr %3, align 8, !tbaa !4
  %33 = getelementptr inbounds nuw %struct.Token, ptr %32, i32 0, i32 0
  %34 = load i32, ptr %33, align 8, !tbaa !70
  %35 = icmp sgt i32 %34, 6
  br i1 %35, label %36, label %37

36:                                               ; preds = %31, %26
  store i32 2, ptr %5, align 4
  br label %41

37:                                               ; preds = %31, %14
  br label %38

38:                                               ; preds = %37
  %39 = load i32, ptr %4, align 4, !tbaa !18
  %40 = add i32 %39, -1
  store i32 %40, ptr %4, align 4, !tbaa !18
  br label %10, !llvm.loop !88

41:                                               ; preds = %36, %13
  call void @llvm.lifetime.end.p0(i64 4, ptr %4) #10
  br label %42

42:                                               ; preds = %41
  %43 = load ptr, ptr %3, align 8, !tbaa !4
  store i32 1, ptr %5, align 4
  call void @llvm.lifetime.end.p0(i64 8, ptr %3) #10
  ret ptr %43
}