; Function Attrs: nofree norecurse nosync nounwind memory(read, inaccessiblemem: none) uwtable
define hidden noundef ptr @_PyPegen_get_last_nonnwhitespace_token(ptr noundef readonly captures(none) %0) local_unnamed_addr #7 {
  %2 = getelementptr inbounds nuw i8, ptr %0, i64 16
  %3 = load i32, ptr %2, align 8, !tbaa !33
  %.011 = add i32 %3, -1
  %4 = icmp sgt i32 %.011, -1
  br i1 %4, label %.lr.ph, label %._crit_edge

.lr.ph:                                           ; preds = %1
  %5 = getelementptr inbounds nuw i8, ptr %0, i64 8
  %6 = load ptr, ptr %5, align 8, !tbaa !35
  %7 = zext nneg i32 %.011 to i64
  br label %8

8:                                                ; preds = %.lr.ph, %.backedge
  %indvars.iv = phi i64 [ %7, %.lr.ph ], [ %indvars.iv.next, %.backedge ]
  %9 = getelementptr ptr, ptr %6, i64 %indvars.iv
  %10 = load ptr, ptr %9, align 8, !tbaa !36
  %11 = load i32, ptr %10, align 8, !tbaa !71
  switch i32 %11, label %._crit_edge [
    i32 6, label %.backedge
    i32 5, label %.backedge
    i32 4, label %.backedge
    i32 0, label %.backedge
  ]

.backedge:                                        ; preds = %8, %8, %8, %8
  %indvars.iv.next = add nsw i64 %indvars.iv, -1
  %12 = icmp sgt i64 %indvars.iv, 0
  br i1 %12, label %8, label %._crit_edge

._crit_edge:                                      ; preds = %.backedge, %8, %1
  %.1 = phi ptr [ null, %1 ], [ %10, %8 ], [ %10, %.backedge ]
  ret ptr %.1
}